(dp0
S'WA'
p1
S'Washington'
p2
sS'WI'
p3
S'Wisconsin'
p4
sS'WV'
p5
S'West Virginia'
p6
sS'FL'
p7
S'Florida'
p8
sS'WY'
p9
S'Wyoming'
p10
sS'NH'
p11
S'New Hampshire'
p12
sS'NJ'
p13
S'New Jersey'
p14
sS'NM'
p15
S'New Mexico'
p16
sS'NC'
p17
S'North Carolina'
p18
sS'ND'
p19
S'North Dakota'
p20
sS'NE'
p21
S'Nebraska'
p22
sS'NY'
p23
S'New York'
p24
sS'RI'
p25
S'Rhode Island'
p26
sS'NV'
p27
S'Nevada'
p28
sS'CO'
p29
S'Colorado'
p30
sS'CA'
p31
S'California'
p32
sS'GA'
p33
S'Georgia'
p34
sS'CT'
p35
S'Connecticut'
p36
sS'OK'
p37
S'Oklahoma'
p38
sS'OH'
p39
S'Ohio'
p40
sS'KS'
p41
S'Kansas'
p42
sS'SC'
p43
S'South Carolina'
p44
sS'KY'
p45
S'Kentucky'
p46
sS'OR'
p47
S'Oregon'
p48
sS'SD'
p49
S'South Dakota'
p50
sS'DE'
p51
S'Delaware'
p52
sS'HI'
p53
S'Hawaii'
p54
sS'TX'
p55
S'Texas'
p56
sS'LA'
p57
S'Louisiana'
p58
sS'TN'
p59
S'Tennessee'
p60
sS'PA'
p61
S'Pennsylvania'
p62
sS'VA'
p63
S'Virginia'
p64
sS'AK'
p65
S'Alaska'
p66
sS'AL'
p67
S'Alabama'
p68
sS'AR'
p69
S'Arkansas'
p70
sS'VT'
p71
S'Vermont'
p72
sS'IL'
p73
S'Illinois'
p74
sS'IN'
p75
S'Indiana'
p76
sS'IA'
p77
S'Iowa'
p78
sS'AZ'
p79
S'Arizona'
p80
sS'ID'
p81
S'Idaho'
p82
sS'ME'
p83
S'Maine'
p84
sS'MD'
p85
S'Maryland'
p86
sS'MA'
p87
S'Massachusetts'
p88
sS'UT'
p89
S'Utah'
p90
sS'MO'
p91
S'Missouri'
p92
sS'MN'
p93
S'Minnesota'
p94
sS'MI'
p95
S'Michigan'
p96
sS'MT'
p97
S'Montana'
p98
sS'MS'
p99
S'Mississippi'
p100
s.